; Function Attrs: mustprogress nounwind uwtable
define hidden void @_ZN17BytecodeAssembler6appendEt(ptr nocapture noundef nonnull readonly align 8 dereferenceable(16) %0, i16 noundef zeroext %1) local_unnamed_addr #0 align 2 {
  %3 = load ptr, ptr %0, align 8
  %4 = load i32, ptr %3, align 8
  %5 = getelementptr inbounds i8, ptr %3, i64 4
  %6 = load i32, ptr %5, align 4
  %7 = icmp eq i32 %4, %6
  br i1 %7, label %8, label %_ZN26GrowableArrayWithAllocatorIh13GrowableArrayIhEE6appendERKh.exit

8:                                                ; preds = %2
  %9 = add nsw i32 %4, 1
  %10 = icmp sgt i32 %4, -1
  %11 = xor i32 %4, -2147483648
  %12 = and i32 %11, %9
  %13 = icmp eq i32 %12, 0
  %14 = and i1 %10, %13
  %15 = tail call range(i32 0, 33) i32 @llvm.ctlz.i32(i32 %9, i1 true)
  %16 = sub nuw nsw i32 32, %15
  %17 = shl nuw i32 1, %16
  %.0.i.i.i.i = select i1 %14, i32 %9, i32 %17
  tail call void @_ZN26GrowableArrayWithAllocatorIh13GrowableArrayIhEE9expand_toEi(ptr noundef nonnull align 8 dereferenceable(16) %3, i32 noundef %.0.i.i.i.i)
  %.pre.i = load i32, ptr %3, align 8
  br label %_ZN26GrowableArrayWithAllocatorIh13GrowableArrayIhEE6appendERKh.exit

_ZN26GrowableArrayWithAllocatorIh13GrowableArrayIhEE6appendERKh.exit: ; preds = %2, %8
  %18 = phi i32 [ %.pre.i, %8 ], [ %4, %2 ]
  %19 = add nsw i32 %18, 1
  store i32 %19, ptr %3, align 8
  %20 = getelementptr inbounds i8, ptr %3, i64 8
  %21 = load ptr, ptr %20, align 8
  %22 = sext i32 %18 to i64
  %23 = getelementptr inbounds i8, ptr %21, i64 %22
  store i8 0, ptr %23, align 1
  %24 = load ptr, ptr %0, align 8
  %25 = load i32, ptr %24, align 8
  %26 = getelementptr inbounds i8, ptr %24, i64 4
  %27 = load i32, ptr %26, align 4
  %28 = icmp eq i32 %25, %27
  br i1 %28, label %29, label %_ZN26GrowableArrayWithAllocatorIh13GrowableArrayIhEE6appendERKh.exit3

29:                                               ; preds = %_ZN26GrowableArrayWithAllocatorIh13GrowableArrayIhEE6appendERKh.exit
  %30 = add nsw i32 %25, 1
  %31 = icmp sgt i32 %25, -1
  %32 = xor i32 %25, -2147483648
  %33 = and i32 %32, %30
  %34 = icmp eq i32 %33, 0
  %35 = and i1 %31, %34
  %36 = tail call range(i32 0, 33) i32 @llvm.ctlz.i32(i32 %30, i1 true)
  %37 = sub nuw nsw i32 32, %36
  %38 = shl nuw i32 1, %37
  %.0.i.i.i.i1 = select i1 %35, i32 %30, i32 %38
  tail call void @_ZN26GrowableArrayWithAllocatorIh13GrowableArrayIhEE9expand_toEi(ptr noundef nonnull align 8 dereferenceable(16) %24, i32 noundef %.0.i.i.i.i1)
  %.pre.i2 = load i32, ptr %24, align 8
  br label %_ZN26GrowableArrayWithAllocatorIh13GrowableArrayIhEE6appendERKh.exit3

_ZN26GrowableArrayWithAllocatorIh13GrowableArrayIhEE6appendERKh.exit3: ; preds = %_ZN26GrowableArrayWithAllocatorIh13GrowableArrayIhEE6appendERKh.exit, %29
  %39 = phi i32 [ %.pre.i2, %29 ], [ %25, %_ZN26GrowableArrayWithAllocatorIh13GrowableArrayIhEE6appendERKh.exit ]
  %40 = add nsw i32 %39, 1
  store i32 %40, ptr %24, align 8
  %41 = getelementptr inbounds i8, ptr %24, i64 8
  %42 = load ptr, ptr %41, align 8
  %43 = sext i32 %39 to i64
  %44 = getelementptr inbounds i8, ptr %42, i64 %43
  store i8 0, ptr %44, align 1
  %45 = load ptr, ptr %0, align 8
  %46 = load i32, ptr %45, align 4
  %47 = getelementptr inbounds i8, ptr %45, i64 8
  %48 = load ptr, ptr %47, align 8
  %49 = sext i32 %46 to i64
  %50 = getelementptr i8, ptr %48, i64 %49
  %51 = getelementptr i8, ptr %50, i64 -2
  %52 = tail call noundef i16 @llvm.bswap.i16(i16 %1)
  %53 = ptrtoint ptr %51 to i64
  %54 = and i64 %53, 1
  %55 = icmp eq i64 %54, 0
  br i1 %55, label %56, label %57

56:                                               ; preds = %_ZN26GrowableArrayWithAllocatorIh13GrowableArrayIhEE6appendERKh.exit3
  store i16 %52, ptr %51, align 2
  br label %_ZN5Bytes11put_Java_u2EPht.exit

57:                                               ; preds = %_ZN26GrowableArrayWithAllocatorIh13GrowableArrayIhEE6appendERKh.exit3
  store i16 %52, ptr %51, align 1
  br label %_ZN5Bytes11put_Java_u2EPht.exit

_ZN5Bytes11put_Java_u2EPht.exit:                  ; preds = %56, %57
  ret void
}